; Function Attrs: mustprogress uwtable
define internal fastcc void @_ZZL25ShowDemoWindowMultiSelectP19ImGuiDemoWindowDataEN16ExampleTreeFuncs22ApplySelectionRequestsEP18ImGuiMultiSelectIOP15ExampleTreeNodeP26ImGuiSelectionBasicStorage(i32 %.0.val, ptr readonly %.8.val, ptr noundef readonly captures(none) %0) unnamed_addr #4 align 2 {
  %2 = sext i32 %.0.val to i64
  %3 = getelementptr inbounds %struct.ImGuiSelectionRequest, ptr %.8.val, i64 %2
  %.not5 = icmp eq i32 %.0.val, 0
  br i1 %.not5, label %._crit_edge, label %.lr.ph7

._crit_edge:                                      ; preds = %.loopexit, %1
  ret void

.lr.ph7:                                          ; preds = %1, %.loopexit
  %.0236 = phi ptr [ %52, %.loopexit ], [ %.8.val, %1 ]
  %4 = load i32, ptr %.0236, align 8, !tbaa !481
  switch i32 %4, label %.loopexit [
    i32 1, label %5
    i32 2, label %11
  ]

5:                                                ; preds = %.lr.ph7
  %6 = getelementptr inbounds nuw i8, ptr %.0236, i64 4
  %7 = load i8, ptr %6, align 4, !tbaa !484, !range !11, !noundef !12
  %8 = trunc nuw i8 %7 to i1
  br i1 %8, label %9, label %10

9:                                                ; preds = %5
  tail call fastcc void @_ZZL25ShowDemoWindowMultiSelectP19ImGuiDemoWindowDataEN16ExampleTreeFuncs21TreeSetAllInOpenNodesEP15ExampleTreeNodeP26ImGuiSelectionBasicStorageb(ptr noundef %0)
  br label %.loopexit

10:                                               ; preds = %5
  tail call void @_ZN26ImGuiSelectionBasicStorage5ClearEv(ptr noundef nonnull align 8 dereferenceable(48) @_ZZL25ShowDemoWindowMultiSelectP19ImGuiDemoWindowDataE9selection_4)
  br label %.loopexit

11:                                               ; preds = %.lr.ph7
  %12 = getelementptr inbounds nuw i8, ptr %.0236, i64 8
  %13 = load i64, ptr %12, align 8, !tbaa !485
  %14 = getelementptr inbounds nuw i8, ptr %.0236, i64 16
  %15 = load i64, ptr %14, align 8, !tbaa !486
  %16 = inttoptr i64 %15 to ptr
  %.not253 = icmp eq i64 %13, 0
  br i1 %.not253, label %.loopexit, label %.lr.ph

.lr.ph:                                           ; preds = %11
  %17 = inttoptr i64 %13 to ptr
  %18 = getelementptr inbounds nuw i8, ptr %.0236, i64 4
  br label %19

19:                                               ; preds = %.lr.ph, %_ZZL25ShowDemoWindowMultiSelectP19ImGuiDemoWindowDataEN16ExampleTreeFuncs29TreeGetNextNodeInVisibleOrderEP15ExampleTreeNodeS3_.exit
  %.04 = phi ptr [ %17, %.lr.ph ], [ %.0.i, %_ZZL25ShowDemoWindowMultiSelectP19ImGuiDemoWindowDataEN16ExampleTreeFuncs29TreeGetNextNodeInVisibleOrderEP15ExampleTreeNodeS3_.exit ]
  %20 = getelementptr inbounds nuw i8, ptr %.04, i64 28
  %21 = load i32, ptr %20, align 4, !tbaa !473
  %22 = load i8, ptr %18, align 4, !tbaa !484, !range !11, !noundef !12
  %23 = trunc nuw i8 %22 to i1
  tail call void @_ZN26ImGuiSelectionBasicStorage15SetItemSelectedEjb(ptr noundef nonnull align 8 dereferenceable(48) @_ZZL25ShowDemoWindowMultiSelectP19ImGuiDemoWindowDataE9selection_4, i32 noundef %21, i1 noundef zeroext %23)
  %24 = icmp eq ptr %.04, %16
  br i1 %24, label %.loopexit, label %25

25:                                               ; preds = %19
  %26 = getelementptr inbounds nuw i8, ptr %.04, i64 40
  %27 = load i32, ptr %26, align 8, !tbaa !477
  %28 = icmp sgt i32 %27, 0
  br i1 %28, label %29, label %.preheader

.preheader:                                       ; preds = %29, %25
  br label %36

29:                                               ; preds = %25
  %30 = tail call noundef ptr @_ZN5ImGui15GetStateStorageEv()
  %31 = load i32, ptr %20, align 4, !tbaa !473
  %32 = tail call noundef zeroext i1 @_ZNK12ImGuiStorage7GetBoolEjb(ptr noundef nonnull align 8 dereferenceable(16) %30, i32 noundef %31, i1 noundef zeroext false)
  br i1 %32, label %33, label %.preheader

33:                                               ; preds = %29
  %34 = getelementptr inbounds nuw i8, ptr %.04, i64 48
  %35 = load ptr, ptr %34, align 8, !tbaa !401
  br label %_ZZL25ShowDemoWindowMultiSelectP19ImGuiDemoWindowDataEN16ExampleTreeFuncs29TreeGetNextNodeInVisibleOrderEP15ExampleTreeNodeS3_.exit

36:                                               ; preds = %.preheader, %39
  %.012.i = phi ptr [ %38, %39 ], [ %.04, %.preheader ]
  %37 = getelementptr inbounds nuw i8, ptr %.012.i, i64 32
  %38 = load ptr, ptr %37, align 8, !tbaa !476
  %.not.i = icmp eq ptr %38, null
  br i1 %.not.i, label %.loopexit, label %39

39:                                               ; preds = %36
  %40 = getelementptr inbounds nuw i8, ptr %.012.i, i64 56
  %41 = load i16, ptr %40, align 8, !tbaa !474
  %42 = zext i16 %41 to i32
  %43 = add nuw nsw i32 %42, 1
  %44 = getelementptr inbounds nuw i8, ptr %38, i64 40
  %45 = load i32, ptr %44, align 8, !tbaa !477
  %46 = icmp slt i32 %43, %45
  br i1 %46, label %47, label %36, !llvm.loop !487

47:                                               ; preds = %39
  %48 = getelementptr inbounds nuw i8, ptr %38, i64 48
  %49 = load ptr, ptr %48, align 8, !tbaa !401
  %50 = zext nneg i32 %43 to i64
  %51 = getelementptr inbounds nuw ptr, ptr %49, i64 %50
  br label %_ZZL25ShowDemoWindowMultiSelectP19ImGuiDemoWindowDataEN16ExampleTreeFuncs29TreeGetNextNodeInVisibleOrderEP15ExampleTreeNodeS3_.exit

_ZZL25ShowDemoWindowMultiSelectP19ImGuiDemoWindowDataEN16ExampleTreeFuncs29TreeGetNextNodeInVisibleOrderEP15ExampleTreeNodeS3_.exit: ; preds = %33, %47
  %.0.i.in = phi ptr [ %35, %33 ], [ %51, %47 ]
  %.0.i = load ptr, ptr %.0.i.in, align 8, !tbaa !405
  %.not25 = icmp eq ptr %.0.i, null
  br i1 %.not25, label %.loopexit, label %19, !llvm.loop !488

.loopexit:                                        ; preds = %19, %_ZZL25ShowDemoWindowMultiSelectP19ImGuiDemoWindowDataEN16ExampleTreeFuncs29TreeGetNextNodeInVisibleOrderEP15ExampleTreeNodeS3_.exit, %36, %11, %.lr.ph7, %9, %10
  %52 = getelementptr inbounds nuw i8, ptr %.0236, i64 24
  %.not = icmp eq ptr %52, %3
  br i1 %.not, label %._crit_edge, label %.lr.ph7
}